; Function Attrs: nounwind uwtable
define void @Cgt_ManCollectFanoutPos_rec(ptr noundef readonly captures(none) %0, ptr noundef %1, ptr noundef captures(none) %2) local_unnamed_addr #0 {
  %4 = getelementptr i8, ptr %0, i64 312
  %.val = load i32, ptr %4, align 8
  %5 = getelementptr i8, ptr %1, i64 32
  %.val22 = load i32, ptr %5, align 8
  %.not = icmp eq i32 %.val22, %.val
  br i1 %.not, label %.critedge, label %6

6:                                                ; preds = %3
  store i32 %.val, ptr %5, align 8
  %7 = getelementptr i8, ptr %1, i64 24
  %.val24 = load i64, ptr %7, align 8
  %8 = and i64 %.val24, 7
  %.not28 = icmp eq i64 %8, 3
  br i1 %.not28, label %13, label %.preheader

.preheader:                                       ; preds = %6
  %9 = and i64 %.val24, 4294967232
  %.not31 = icmp eq i64 %9, 0
  br i1 %.not31, label %.critedge, label %.lr.ph

.lr.ph:                                           ; preds = %.preheader
  %10 = getelementptr i8, ptr %0, i64 176
  %11 = getelementptr inbounds nuw i8, ptr %1, i64 36
  %12 = getelementptr i8, ptr %0, i64 32
  br label %45

13:                                               ; preds = %6
  %14 = getelementptr inbounds nuw i8, ptr %2, i64 4
  %15 = load i32, ptr %14, align 4
  %16 = load i32, ptr %2, align 8
  %17 = icmp eq i32 %15, %16
  br i1 %17, label %18, label %.Vec_PtrGrow.exit11_crit_edge.i

.Vec_PtrGrow.exit11_crit_edge.i:                  ; preds = %13
  %.phi.trans.insert.i = getelementptr inbounds nuw i8, ptr %2, i64 8
  %.pre.i = load ptr, ptr %.phi.trans.insert.i, align 8
  br label %Vec_PtrPush.exit

18:                                               ; preds = %13
  %19 = icmp slt i32 %15, 16
  br i1 %19, label %20, label %28

20:                                               ; preds = %18
  %21 = getelementptr inbounds nuw i8, ptr %2, i64 8
  %22 = load ptr, ptr %21, align 8
  %.not9.i.i = icmp eq ptr %22, null
  br i1 %.not9.i.i, label %25, label %23

23:                                               ; preds = %20
  %24 = tail call dereferenceable_or_null(128) ptr @realloc(ptr noundef nonnull %22, i64 noundef 128) #14
  br label %Vec_PtrGrow.exit.i

25:                                               ; preds = %20
  %26 = tail call noalias dereferenceable_or_null(128) ptr @malloc(i64 noundef 128) #15
  br label %Vec_PtrGrow.exit.i

Vec_PtrGrow.exit.i:                               ; preds = %25, %23
  %27 = phi ptr [ %24, %23 ], [ %26, %25 ]
  store ptr %27, ptr %21, align 8
  store i32 16, ptr %2, align 8
  br label %Vec_PtrPush.exit

28:                                               ; preds = %18
  %29 = shl nuw nsw i32 %15, 1
  %30 = getelementptr inbounds nuw i8, ptr %2, i64 8
  %31 = load ptr, ptr %30, align 8
  %.not9.i10.i = icmp eq ptr %31, null
  %32 = zext nneg i32 %29 to i64
  %33 = shl nuw nsw i64 %32, 3
  br i1 %.not9.i10.i, label %36, label %34

34:                                               ; preds = %28
  %35 = tail call ptr @realloc(ptr noundef nonnull %31, i64 noundef %33) #14
  br label %38

36:                                               ; preds = %28
  %37 = tail call noalias ptr @malloc(i64 noundef %33) #15
  br label %38

38:                                               ; preds = %36, %34
  %39 = phi ptr [ %35, %34 ], [ %37, %36 ]
  store ptr %39, ptr %30, align 8
  store i32 %29, ptr %2, align 8
  br label %Vec_PtrPush.exit

Vec_PtrPush.exit:                                 ; preds = %.Vec_PtrGrow.exit11_crit_edge.i, %Vec_PtrGrow.exit.i, %38
  %40 = phi ptr [ %.pre.i, %.Vec_PtrGrow.exit11_crit_edge.i ], [ %39, %38 ], [ %27, %Vec_PtrGrow.exit.i ]
  %41 = load i32, ptr %14, align 4
  %42 = add nsw i32 %41, 1
  store i32 %42, ptr %14, align 4
  %43 = sext i32 %41 to i64
  %44 = getelementptr inbounds ptr, ptr %40, i64 %43
  store ptr %1, ptr %44, align 8
  br label %.critedge

45:                                               ; preds = %.lr.ph, %Aig_ManObj.exit
  %.030 = phi i32 [ -1, %.lr.ph ], [ %58, %Aig_ManObj.exit ]
  %.01929 = phi i32 [ 0, %.lr.ph ], [ %66, %Aig_ManObj.exit ]
  %.not21 = icmp eq i32 %.01929, 0
  br i1 %.not21, label %52, label %46

46:                                               ; preds = %45
  %47 = ashr i32 %.030, 1
  %48 = mul nsw i32 %47, 5
  %49 = and i32 %.030, 1
  %50 = add nuw nsw i32 %49, 3
  %51 = add i32 %50, %48
  br label %55

52:                                               ; preds = %45
  %53 = load i32, ptr %11, align 4
  %54 = mul nsw i32 %53, 5
  br label %55

55:                                               ; preds = %52, %46
  %.sink32 = phi i32 [ %54, %52 ], [ %51, %46 ]
  %.val26.sink = load ptr, ptr %10, align 8
  %56 = sext i32 %.sink32 to i64
  %57 = getelementptr inbounds i32, ptr %.val26.sink, i64 %56
  %58 = load i32, ptr %57, align 4
  %.val27 = load ptr, ptr %12, align 8
  %.not.i = icmp eq ptr %.val27, null
  br i1 %.not.i, label %Aig_ManObj.exit, label %59

59:                                               ; preds = %55
  %60 = ashr i32 %58, 1
  %61 = getelementptr i8, ptr %.val27, i64 8
  %.val.i = load ptr, ptr %61, align 8
  %62 = sext i32 %60 to i64
  %63 = getelementptr inbounds ptr, ptr %.val.i, i64 %62
  %64 = load ptr, ptr %63, align 8
  br label %Aig_ManObj.exit

Aig_ManObj.exit:                                  ; preds = %55, %59
  %65 = phi ptr [ %64, %59 ], [ null, %55 ]
  tail call void @Cgt_ManCollectFanoutPos_rec(ptr noundef nonnull %0, ptr noundef %65, ptr noundef %2)
  %66 = add nuw nsw i32 %.01929, 1
  %67 = load i64, ptr %7, align 8
  %68 = trunc i64 %67 to i32
  %69 = lshr i32 %68, 6
  %70 = icmp samesign ult i32 %66, %69
  br i1 %70, label %45, label %.critedge, !llvm.loop !4

.critedge:                                        ; preds = %Aig_ManObj.exit, %.preheader, %3, %Vec_PtrPush.exit
  ret void
}